target datalayout = "e-m:e-p270:32:32-p271:32:32-p272:64:64-i64:64-i128:128-f80:128-n8:16:32:64-S128"
target triple = "x86_64-pc-linux-gnu"

%struct._object = type { %union.anon, ptr }
%union.anon = type { i64 }
%struct.PyVarObject = type { %struct._object, i64 }
%struct.arraydescr = type { i8, i32, ptr, ptr, ptr, ptr, i32, i32 }
%struct.arrayobject = type { %struct.PyVarObject, ptr, i64, ptr, ptr, i64 }

; Function Attrs: inlinehint nounwind uwtable
define internal i64 @Py_SIZE(ptr noundef %0) #3 {
  %2 = alloca ptr, align 8
  store ptr %0, ptr %2, align 8, !tbaa !3
  %3 = load ptr, ptr %2, align 8, !tbaa !3
  %4 = getelementptr inbounds nuw %struct.PyVarObject, ptr %3, i32 0, i32 1
  %5 = load i64, ptr %4, align 8, !tbaa !62
  ret i64 %5
}

; Function Attrs: nounwind uwtable
define internal ptr @array_array_tobytes_impl(ptr noundef %0) #0 {
  %2 = alloca ptr, align 8
  %3 = alloca ptr, align 8
  store ptr %0, ptr %3, align 8, !tbaa !68
  %4 = load ptr, ptr %3, align 8, !tbaa !68
  %5 = call i64 @Py_SIZE(ptr noundef %4)
  %6 = load ptr, ptr %3, align 8, !tbaa !68
  %7 = getelementptr inbounds nuw %struct.arrayobject, ptr %6, i32 0, i32 3
  %8 = load ptr, ptr %7, align 8, !tbaa !99
  %9 = getelementptr inbounds nuw %struct.arraydescr, ptr %8, i32 0, i32 1
  %10 = load i32, ptr %9, align 4, !tbaa !52
  %11 = sext i32 %10 to i64
  %12 = sdiv i64 9223372036854775807, %11
  %13 = icmp sle i64 %5, %12
  br i1 %13, label %14, label %28

14:                                               ; preds = %1
  %15 = load ptr, ptr %3, align 8, !tbaa !68
  %16 = getelementptr inbounds nuw %struct.arrayobject, ptr %15, i32 0, i32 1
  %17 = load ptr, ptr %16, align 8, !tbaa !70
  %18 = load ptr, ptr %3, align 8, !tbaa !68
  %19 = call i64 @Py_SIZE(ptr noundef %18)
  %20 = load ptr, ptr %3, align 8, !tbaa !68
  %21 = getelementptr inbounds nuw %struct.arrayobject, ptr %20, i32 0, i32 3
  %22 = load ptr, ptr %21, align 8, !tbaa !99
  %23 = getelementptr inbounds nuw %struct.arraydescr, ptr %22, i32 0, i32 1
  %24 = load i32, ptr %23, align 4, !tbaa !52
  %25 = sext i32 %24 to i64
  %26 = mul i64 %19, %25
  %27 = call ptr @PyBytes_FromStringAndSize(ptr noundef %17, i64 noundef %26)
  store ptr %27, ptr %2, align 8
  br label %30

28:                                               ; preds = %1
  %29 = call ptr @PyErr_NoMemory()
  store ptr %29, ptr %2, align 8
  br label %30

30:                                               ; preds = %28, %14
  %31 = load ptr, ptr %2, align 8
  ret ptr %31
}

; Function Attrs: nounwind uwtable
define internal ptr @array_array_tobytes(ptr noundef %0, ptr noundef %1) #0 {
  %3 = alloca ptr, align 8
  %4 = alloca ptr, align 8
  store ptr %0, ptr %3, align 8, !tbaa !3
  store ptr %1, ptr %4, align 8, !tbaa !3
  %5 = load ptr, ptr %3, align 8, !tbaa !3
  %6 = call ptr @array_array_tobytes_impl(ptr noundef %5)
  ret ptr %6
}