; Function Attrs: nounwind uwtable
define internal ptr @array_array_tobytes(ptr noundef readonly captures(none) %0, ptr readnone captures(none) %1) #0 {
  %3 = getelementptr i8, ptr %0, i64 16
  %.val6.i = load i64, ptr %3, align 8, !tbaa !40
  %4 = getelementptr inbounds nuw i8, ptr %0, i64 40
  %5 = load ptr, ptr %4, align 8, !tbaa !76
  %6 = getelementptr inbounds nuw i8, ptr %5, i64 4
  %7 = load i32, ptr %6, align 4, !tbaa !49
  %8 = sext i32 %7 to i64
  %9 = sdiv i64 9223372036854775807, %8
  %.not.i = icmp sgt i64 %.val6.i, %9
  br i1 %.not.i, label %15, label %10

10:                                               ; preds = %2
  %11 = getelementptr inbounds nuw i8, ptr %0, i64 24
  %12 = load ptr, ptr %11, align 8, !tbaa !53
  %13 = mul i64 %.val6.i, %8
  %14 = tail call ptr @PyBytes_FromStringAndSize(ptr noundef %12, i64 noundef %13) #11
  br label %array_array_tobytes_impl.exit

15:                                               ; preds = %2
  %16 = tail call ptr @PyErr_NoMemory() #11
  br label %array_array_tobytes_impl.exit

array_array_tobytes_impl.exit:                    ; preds = %10, %15
  %.0.i = phi ptr [ %14, %10 ], [ %16, %15 ]
  ret ptr %.0.i
}